target datalayout = "e-m:e-p270:32:32-p271:32:32-p272:64:64-i64:64-i128:128-f80:128-n8:16:32:64-S128"
target triple = "x86_64-pc-linux-gnu"

%struct.TupleDescData = type { i32, i32, i32, i32, ptr, [0 x %struct.CompactAttribute] }
%struct.CompactAttribute = type { i32, i16, i8, i8, i8, i8, i8, i8, i8 }
%struct.varattrib_1b = type { i8, [0 x i8] }

; Function Attrs: inlinehint nounwind uwtable
define internal i64 @PointerGetDatum(ptr noundef %0) #3 {
  %2 = alloca ptr, align 8
  store ptr %0, ptr %2, align 8
  %3 = load ptr, ptr %2, align 8
  %4 = ptrtoint ptr %3 to i64
  ret i64 %4
}

; Function Attrs: inlinehint nounwind uwtable
define internal ptr @DatumGetPointer(i64 noundef %0) #3 {
  %2 = alloca i64, align 8
  store i64 %0, ptr %2, align 8
  %3 = load i64, ptr %2, align 8
  %4 = inttoptr i64 %3 to ptr
  ret ptr %4
}

; Function Attrs: inlinehint nounwind uwtable
define internal ptr @TupleDescCompactAttr(ptr noundef %0, i32 noundef %1) #3 {
  %3 = alloca ptr, align 8
  %4 = alloca i32, align 4
  %5 = alloca ptr, align 8
  store ptr %0, ptr %3, align 8
  store i32 %1, ptr %4, align 4
  call void @llvm.lifetime.start.p0(i64 8, ptr %5) #7
  %6 = load ptr, ptr %3, align 8
  %7 = getelementptr inbounds nuw %struct.TupleDescData, ptr %6, i32 0, i32 5
  %8 = load i32, ptr %4, align 4
  %9 = sext i32 %8 to i64
  %10 = getelementptr inbounds [0 x %struct.CompactAttribute], ptr %7, i64 0, i64 %9
  store ptr %10, ptr %5, align 8
  %11 = load ptr, ptr %5, align 8
  call void @llvm.lifetime.end.p0(i64 8, ptr %5) #7
  ret ptr %11
}

; Function Attrs: nounwind uwtable
define dso_local ptr @toast_build_flattened_tuple(ptr noundef %0, ptr noundef %1, ptr noundef %2) #0 {
  %4 = alloca ptr, align 8
  %5 = alloca ptr, align 8
  %6 = alloca ptr, align 8
  %7 = alloca ptr, align 8
  %8 = alloca i32, align 4
  %9 = alloca i32, align 4
  %10 = alloca i32, align 4
  %11 = alloca [1664 x i64], align 16
  %12 = alloca [1664 x ptr], align 16
  %13 = alloca ptr, align 8
  store ptr %0, ptr %4, align 8
  store ptr %1, ptr %5, align 8
  store ptr %2, ptr %6, align 8
  call void @llvm.lifetime.start.p0(i64 8, ptr %7) #7
  call void @llvm.lifetime.start.p0(i64 4, ptr %8) #7
  %14 = load ptr, ptr %4, align 8
  %15 = getelementptr inbounds nuw %struct.TupleDescData, ptr %14, i32 0, i32 0
  %16 = load i32, ptr %15, align 8
  store i32 %16, ptr %8, align 4
  call void @llvm.lifetime.start.p0(i64 4, ptr %9) #7
  call void @llvm.lifetime.start.p0(i64 4, ptr %10) #7
  call void @llvm.lifetime.start.p0(i64 13312, ptr %11) #7
  call void @llvm.lifetime.start.p0(i64 13312, ptr %12) #7
  %17 = getelementptr inbounds [1664 x i64], ptr %11, i64 0, i64 0
  %18 = load ptr, ptr %5, align 8
  %19 = load i32, ptr %8, align 4
  %20 = sext i32 %19 to i64
  %21 = mul i64 %20, 8
  call void @llvm.memcpy.p0.p0.i64(ptr align 16 %17, ptr align 8 %18, i64 %21, i1 false)
  store i32 0, ptr %9, align 4
  store i32 0, ptr %10, align 4
  br label %22

22:                                               ; preds = %67, %3
  %23 = load i32, ptr %10, align 4
  %24 = load i32, ptr %8, align 4
  %25 = icmp slt i32 %23, %24
  br i1 %25, label %26, label %70

26:                                               ; preds = %22
  %27 = load ptr, ptr %6, align 8
  %28 = load i32, ptr %10, align 4
  %29 = sext i32 %28 to i64
  %30 = getelementptr inbounds i8, ptr %27, i64 %29
  %31 = load i8, ptr %30, align 1, !range !4, !noundef !5
  %32 = trunc i8 %31 to i1
  br i1 %32, label %66, label %33

33:                                               ; preds = %26
  %34 = load ptr, ptr %4, align 8
  %35 = load i32, ptr %10, align 4
  %36 = call ptr @TupleDescCompactAttr(ptr noundef %34, i32 noundef %35)
  %37 = getelementptr inbounds nuw %struct.CompactAttribute, ptr %36, i32 0, i32 1
  %38 = load i16, ptr %37, align 4
  %39 = sext i16 %38 to i32
  %40 = icmp eq i32 %39, -1
  br i1 %40, label %41, label %66

41:                                               ; preds = %33
  call void @llvm.lifetime.start.p0(i64 8, ptr %13) #7
  %42 = load i32, ptr %10, align 4
  %43 = sext i32 %42 to i64
  %44 = getelementptr inbounds [1664 x i64], ptr %11, i64 0, i64 %43
  %45 = load i64, ptr %44, align 8
  %46 = call ptr @DatumGetPointer(i64 noundef %45)
  store ptr %46, ptr %13, align 8
  %47 = load ptr, ptr %13, align 8
  %48 = getelementptr inbounds nuw %struct.varattrib_1b, ptr %47, i32 0, i32 0
  %49 = load i8, ptr %48, align 1
  %50 = zext i8 %49 to i32
  %51 = icmp eq i32 %50, 1
  br i1 %51, label %52, label %65

52:                                               ; preds = %41
  %53 = load ptr, ptr %13, align 8
  %54 = call ptr @detoast_external_attr(ptr noundef %53)
  store ptr %54, ptr %13, align 8
  %55 = load ptr, ptr %13, align 8
  %56 = call i64 @PointerGetDatum(ptr noundef %55)
  %57 = load i32, ptr %10, align 4
  %58 = sext i32 %57 to i64
  %59 = getelementptr inbounds [1664 x i64], ptr %11, i64 0, i64 %58
  store i64 %56, ptr %59, align 8
  %60 = load ptr, ptr %13, align 8
  %61 = load i32, ptr %9, align 4
  %62 = add i32 %61, 1
  store i32 %62, ptr %9, align 4
  %63 = sext i32 %61 to i64
  %64 = getelementptr inbounds [1664 x ptr], ptr %12, i64 0, i64 %63
  store ptr %60, ptr %64, align 8
  br label %65

65:                                               ; preds = %52, %41
  call void @llvm.lifetime.end.p0(i64 8, ptr %13) #7
  br label %66

66:                                               ; preds = %65, %33, %26
  br label %67

67:                                               ; preds = %66
  %68 = load i32, ptr %10, align 4
  %69 = add i32 %68, 1
  store i32 %69, ptr %10, align 4
  br label %22, !llvm.loop !15

70:                                               ; preds = %22
  %71 = load ptr, ptr %4, align 8
  %72 = getelementptr inbounds [1664 x i64], ptr %11, i64 0, i64 0
  %73 = load ptr, ptr %6, align 8
  %74 = call ptr @heap_form_tuple(ptr noundef %71, ptr noundef %72, ptr noundef %73)
  store ptr %74, ptr %7, align 8
  store i32 0, ptr %10, align 4
  br label %75

75:                                               ; preds = %84, %70
  %76 = load i32, ptr %10, align 4
  %77 = load i32, ptr %9, align 4
  %78 = icmp slt i32 %76, %77
  br i1 %78, label %79, label %87

79:                                               ; preds = %75
  %80 = load i32, ptr %10, align 4
  %81 = sext i32 %80 to i64
  %82 = getelementptr inbounds [1664 x ptr], ptr %12, i64 0, i64 %81
  %83 = load ptr, ptr %82, align 8
  call void @pfree(ptr noundef %83)
  br label %84

84:                                               ; preds = %79
  %85 = load i32, ptr %10, align 4
  %86 = add i32 %85, 1
  store i32 %86, ptr %10, align 4
  br label %75, !llvm.loop !16

87:                                               ; preds = %75
  %88 = load ptr, ptr %7, align 8
  call void @llvm.lifetime.end.p0(i64 13312, ptr %12) #7
  call void @llvm.lifetime.end.p0(i64 13312, ptr %11) #7
  call void @llvm.lifetime.end.p0(i64 4, ptr %10) #7
  call void @llvm.lifetime.end.p0(i64 4, ptr %9) #7
  call void @llvm.lifetime.end.p0(i64 4, ptr %8) #7
  call void @llvm.lifetime.end.p0(i64 8, ptr %7) #7
  ret ptr %88
}