; Function Attrs: nounwind uwtable
define dso_local ptr @toast_build_flattened_tuple(ptr noundef %0, ptr noundef readonly captures(none) %1, ptr noundef %2) local_unnamed_addr #0 {
  %4 = alloca [1664 x i64], align 16
  %5 = alloca [1664 x ptr], align 16
  %6 = load i32, ptr %0, align 8
  call void @llvm.lifetime.start.p0(i64 13312, ptr nonnull %4) #8
  call void @llvm.lifetime.start.p0(i64 13312, ptr nonnull %5) #8
  %7 = sext i32 %6 to i64
  %8 = shl nsw i64 %7, 3
  call void @llvm.memcpy.p0.p0.i64(ptr nonnull align 16 %4, ptr align 8 %1, i64 %8, i1 false)
  %9 = icmp sgt i32 %6, 0
  br i1 %9, label %.lr.ph, label %._crit_edge.thread

._crit_edge.thread:                               ; preds = %3
  %10 = call ptr @heap_form_tuple(ptr noundef nonnull %0, ptr noundef nonnull %4, ptr noundef %2) #8
  br label %._crit_edge30

.lr.ph:                                           ; preds = %3
  %11 = getelementptr i8, ptr %0, i64 28
  %wide.trip.count = zext nneg i32 %6 to i64
  br label %12

12:                                               ; preds = %.lr.ph, %32
  %indvars.iv = phi i64 [ 0, %.lr.ph ], [ %indvars.iv.next, %32 ]
  %.02325 = phi i32 [ 0, %.lr.ph ], [ %.2, %32 ]
  %13 = getelementptr inbounds nuw i8, ptr %2, i64 %indvars.iv
  %14 = load i8, ptr %13, align 1, !range !4, !noundef !5
  %15 = trunc nuw i8 %14 to i1
  br i1 %15, label %32, label %16

16:                                               ; preds = %12
  %.idx = shl nuw nsw i64 %indvars.iv, 4
  %17 = getelementptr i8, ptr %11, i64 %.idx
  %18 = load i16, ptr %17, align 4
  %19 = icmp eq i16 %18, -1
  br i1 %19, label %20, label %32

20:                                               ; preds = %16
  %21 = getelementptr inbounds nuw [1664 x i64], ptr %4, i64 0, i64 %indvars.iv
  %22 = load i64, ptr %21, align 8
  %23 = inttoptr i64 %22 to ptr
  %24 = load i8, ptr %23, align 1
  %25 = icmp eq i8 %24, 1
  br i1 %25, label %26, label %32

26:                                               ; preds = %20
  %27 = tail call ptr @detoast_external_attr(ptr noundef nonnull %23) #8
  %28 = ptrtoint ptr %27 to i64
  store i64 %28, ptr %21, align 8
  %29 = add i32 %.02325, 1
  %30 = sext i32 %.02325 to i64
  %31 = getelementptr inbounds [1664 x ptr], ptr %5, i64 0, i64 %30
  store ptr %27, ptr %31, align 8
  br label %32

32:                                               ; preds = %20, %26, %12, %16
  %.2 = phi i32 [ %.02325, %12 ], [ %.02325, %16 ], [ %29, %26 ], [ %.02325, %20 ]
  %indvars.iv.next = add nuw nsw i64 %indvars.iv, 1
  %exitcond.not = icmp eq i64 %indvars.iv.next, %wide.trip.count
  br i1 %exitcond.not, label %._crit_edge, label %12, !llvm.loop !11

._crit_edge:                                      ; preds = %32
  %33 = call ptr @heap_form_tuple(ptr noundef nonnull %0, ptr noundef nonnull %4, ptr noundef nonnull %2) #8
  %34 = icmp sgt i32 %.2, 0
  br i1 %34, label %.lr.ph29.preheader, label %._crit_edge30

.lr.ph29.preheader:                               ; preds = %._crit_edge
  %wide.trip.count35 = zext nneg i32 %.2 to i64
  br label %.lr.ph29

.lr.ph29:                                         ; preds = %.lr.ph29.preheader, %.lr.ph29
  %indvars.iv32 = phi i64 [ 0, %.lr.ph29.preheader ], [ %indvars.iv.next33, %.lr.ph29 ]
  %35 = getelementptr inbounds nuw [1664 x ptr], ptr %5, i64 0, i64 %indvars.iv32
  %36 = load ptr, ptr %35, align 8
  call void @pfree(ptr noundef %36) #8
  %indvars.iv.next33 = add nuw nsw i64 %indvars.iv32, 1
  %exitcond36.not = icmp eq i64 %indvars.iv.next33, %wide.trip.count35
  br i1 %exitcond36.not, label %._crit_edge30, label %.lr.ph29, !llvm.loop !12

._crit_edge30:                                    ; preds = %.lr.ph29, %._crit_edge.thread, %._crit_edge
  %37 = phi ptr [ %10, %._crit_edge.thread ], [ %33, %._crit_edge ], [ %33, %.lr.ph29 ]
  call void @llvm.lifetime.end.p0(i64 13312, ptr nonnull %5) #8
  call void @llvm.lifetime.end.p0(i64 13312, ptr nonnull %4) #8
  ret ptr %37
}